target datalayout = "e-m:e-p270:32:32-p271:32:32-p272:64:64-i64:64-i128:128-f80:128-n8:16:32:64-S128"
target triple = "x86_64-pc-linux-gnu"

%struct.cgltf_extras = type { i64, i64, ptr }
%struct.cgltf_buffer = type { ptr, i64, ptr, ptr, i32, %struct.cgltf_extras, i64, ptr }
%struct.cgltf_accessor = type { ptr, i32, i32, i32, i64, i64, i64, ptr, i32, [16 x float], i32, [16 x float], i32, %struct.cgltf_accessor_sparse, %struct.cgltf_extras, i64, ptr }
%struct.cgltf_accessor_sparse = type { i64, ptr, i64, i32, ptr, i64 }
%struct.cgltf_buffer_view = type { ptr, ptr, i64, i64, i64, i32, ptr, i32, %struct.cgltf_meshopt_compression, %struct.cgltf_extras, i64, ptr }
%struct.cgltf_meshopt_compression = type { ptr, i64, i64, i64, i64, i32, i32 }

; Function Attrs: nounwind uwtable
define internal i64 @cgltf_component_read_index(ptr noundef %0, i32 noundef %1) #0 {
  %3 = alloca i64, align 8
  %4 = alloca ptr, align 8
  %5 = alloca i32, align 4
  store ptr %0, ptr %4, align 8
  store i32 %1, ptr %5, align 4
  %6 = load i32, ptr %5, align 4
  switch i32 %6, label %19 [
    i32 4, label %7
    i32 5, label %11
    i32 2, label %15
  ]

7:                                                ; preds = %2
  %8 = load ptr, ptr %4, align 8
  %9 = load i16, ptr %8, align 2
  %10 = zext i16 %9 to i64
  store i64 %10, ptr %3, align 8
  br label %20

11:                                               ; preds = %2
  %12 = load ptr, ptr %4, align 8
  %13 = load i32, ptr %12, align 4
  %14 = zext i32 %13 to i64
  store i64 %14, ptr %3, align 8
  br label %20

15:                                               ; preds = %2
  %16 = load ptr, ptr %4, align 8
  %17 = load i8, ptr %16, align 1
  %18 = zext i8 %17 to i64
  store i64 %18, ptr %3, align 8
  br label %20

19:                                               ; preds = %2
  store i64 0, ptr %3, align 8
  br label %20

20:                                               ; preds = %19, %15, %11, %7
  %21 = load i64, ptr %3, align 8
  ret i64 %21
}

; Function Attrs: nounwind uwtable
define hidden ptr @cgltf_buffer_view_data(ptr noundef %0) #0 {
  %2 = alloca ptr, align 8
  %3 = alloca ptr, align 8
  %4 = alloca ptr, align 8
  store ptr %0, ptr %3, align 8
  %5 = load ptr, ptr %3, align 8
  %6 = getelementptr inbounds nuw %struct.cgltf_buffer_view, ptr %5, i32 0, i32 6
  %7 = load ptr, ptr %6, align 8
  %8 = icmp ne ptr %7, null
  br i1 %8, label %9, label %13

9:                                                ; preds = %1
  %10 = load ptr, ptr %3, align 8
  %11 = getelementptr inbounds nuw %struct.cgltf_buffer_view, ptr %10, i32 0, i32 6
  %12 = load ptr, ptr %11, align 8
  store ptr %12, ptr %2, align 8
  br label %33

13:                                               ; preds = %1
  %14 = load ptr, ptr %3, align 8
  %15 = getelementptr inbounds nuw %struct.cgltf_buffer_view, ptr %14, i32 0, i32 1
  %16 = load ptr, ptr %15, align 8
  %17 = getelementptr inbounds nuw %struct.cgltf_buffer, ptr %16, i32 0, i32 3
  %18 = load ptr, ptr %17, align 8
  %19 = icmp ne ptr %18, null
  br i1 %19, label %21, label %20

20:                                               ; preds = %13
  store ptr null, ptr %2, align 8
  br label %33

21:                                               ; preds = %13
  call void @llvm.lifetime.start.p0(i64 8, ptr %4) #16
  %22 = load ptr, ptr %3, align 8
  %23 = getelementptr inbounds nuw %struct.cgltf_buffer_view, ptr %22, i32 0, i32 1
  %24 = load ptr, ptr %23, align 8
  %25 = getelementptr inbounds nuw %struct.cgltf_buffer, ptr %24, i32 0, i32 3
  %26 = load ptr, ptr %25, align 8
  store ptr %26, ptr %4, align 8
  %27 = load ptr, ptr %3, align 8
  %28 = getelementptr inbounds nuw %struct.cgltf_buffer_view, ptr %27, i32 0, i32 2
  %29 = load i64, ptr %28, align 8
  %30 = load ptr, ptr %4, align 8
  %31 = getelementptr inbounds nuw i8, ptr %30, i64 %29
  store ptr %31, ptr %4, align 8
  %32 = load ptr, ptr %4, align 8
  store ptr %32, ptr %2, align 8
  call void @llvm.lifetime.end.p0(i64 8, ptr %4) #16
  br label %33

33:                                               ; preds = %21, %20, %9
  %34 = load ptr, ptr %2, align 8
  ret ptr %34
}

; Function Attrs: nounwind uwtable
define hidden i64 @cgltf_component_size(i32 noundef %0) #0 {
  %2 = alloca i64, align 8
  %3 = alloca i32, align 4
  store i32 %0, ptr %3, align 4
  %4 = load i32, ptr %3, align 4
  switch i32 %4, label %9 [
    i32 1, label %5
    i32 2, label %5
    i32 3, label %6
    i32 4, label %6
    i32 5, label %7
    i32 6, label %7
    i32 0, label %8
  ]

5:                                                ; preds = %1, %1
  store i64 1, ptr %2, align 8
  br label %10

6:                                                ; preds = %1, %1
  store i64 2, ptr %2, align 8
  br label %10

7:                                                ; preds = %1, %1
  store i64 4, ptr %2, align 8
  br label %10

8:                                                ; preds = %1
  br label %9

9:                                                ; preds = %1, %8
  store i64 0, ptr %2, align 8
  br label %10

10:                                               ; preds = %9, %7, %6, %5
  %11 = load i64, ptr %2, align 8
  ret i64 %11
}

; Function Attrs: nounwind uwtable
define hidden i64 @cgltf_accessor_unpack_indices(ptr noundef %0, ptr noundef %1, i64 noundef %2, i64 noundef %3) #0 {
  %5 = alloca i64, align 8
  %6 = alloca ptr, align 8
  %7 = alloca ptr, align 8
  %8 = alloca i64, align 8
  %9 = alloca i64, align 8
  %10 = alloca i64, align 8
  %11 = alloca i32, align 4
  %12 = alloca ptr, align 8
  %13 = alloca i64, align 8
  %14 = alloca i64, align 8
  store ptr %0, ptr %6, align 8
  store ptr %1, ptr %7, align 8
  store i64 %2, ptr %8, align 8
  store i64 %3, ptr %9, align 8
  %15 = load ptr, ptr %7, align 8
  %16 = icmp eq ptr %15, null
  br i1 %16, label %17, label %21

17:                                               ; preds = %4
  %18 = load ptr, ptr %6, align 8
  %19 = getelementptr inbounds nuw %struct.cgltf_accessor, ptr %18, i32 0, i32 5
  %20 = load i64, ptr %19, align 8
  store i64 %20, ptr %5, align 8
  br label %142

21:                                               ; preds = %4
  %22 = load ptr, ptr %6, align 8
  %23 = getelementptr inbounds nuw %struct.cgltf_accessor, ptr %22, i32 0, i32 5
  %24 = load i64, ptr %23, align 8
  %25 = load i64, ptr %9, align 8
  %26 = icmp ult i64 %24, %25
  br i1 %26, label %27, label %31

27:                                               ; preds = %21
  %28 = load ptr, ptr %6, align 8
  %29 = getelementptr inbounds nuw %struct.cgltf_accessor, ptr %28, i32 0, i32 5
  %30 = load i64, ptr %29, align 8
  br label %33

31:                                               ; preds = %21
  %32 = load i64, ptr %9, align 8
  br label %33

33:                                               ; preds = %31, %27
  %34 = phi i64 [ %30, %27 ], [ %32, %31 ]
  store i64 %34, ptr %9, align 8
  call void @llvm.lifetime.start.p0(i64 8, ptr %10) #16
  %35 = load ptr, ptr %6, align 8
  %36 = getelementptr inbounds nuw %struct.cgltf_accessor, ptr %35, i32 0, i32 1
  %37 = load i32, ptr %36, align 8
  %38 = call i64 @cgltf_component_size(i32 noundef %37)
  store i64 %38, ptr %10, align 8
  %39 = load ptr, ptr %6, align 8
  %40 = getelementptr inbounds nuw %struct.cgltf_accessor, ptr %39, i32 0, i32 12
  %41 = load i32, ptr %40, align 8
  %42 = icmp ne i32 %41, 0
  br i1 %42, label %43, label %44

43:                                               ; preds = %33
  store i64 0, ptr %5, align 8
  store i32 1, ptr %11, align 4
  br label %141

44:                                               ; preds = %33
  %45 = load ptr, ptr %6, align 8
  %46 = getelementptr inbounds nuw %struct.cgltf_accessor, ptr %45, i32 0, i32 7
  %47 = load ptr, ptr %46, align 8
  %48 = icmp eq ptr %47, null
  br i1 %48, label %49, label %50

49:                                               ; preds = %44
  store i64 0, ptr %5, align 8
  store i32 1, ptr %11, align 4
  br label %141

50:                                               ; preds = %44
  %51 = load i64, ptr %10, align 8
  %52 = load i64, ptr %8, align 8
  %53 = icmp ugt i64 %51, %52
  br i1 %53, label %54, label %55

54:                                               ; preds = %50
  store i64 0, ptr %5, align 8
  store i32 1, ptr %11, align 4
  br label %141

55:                                               ; preds = %50
  call void @llvm.lifetime.start.p0(i64 8, ptr %12) #16
  %56 = load ptr, ptr %6, align 8
  %57 = getelementptr inbounds nuw %struct.cgltf_accessor, ptr %56, i32 0, i32 7
  %58 = load ptr, ptr %57, align 8
  %59 = call ptr @cgltf_buffer_view_data(ptr noundef %58)
  store ptr %59, ptr %12, align 8
  %60 = load ptr, ptr %12, align 8
  %61 = icmp eq ptr %60, null
  br i1 %61, label %62, label %63

62:                                               ; preds = %55
  store i64 0, ptr %5, align 8
  store i32 1, ptr %11, align 4
  br label %140

63:                                               ; preds = %55
  %64 = load ptr, ptr %6, align 8
  %65 = getelementptr inbounds nuw %struct.cgltf_accessor, ptr %64, i32 0, i32 4
  %66 = load i64, ptr %65, align 8
  %67 = load ptr, ptr %12, align 8
  %68 = getelementptr inbounds nuw i8, ptr %67, i64 %66
  store ptr %68, ptr %12, align 8
  %69 = load i64, ptr %10, align 8
  %70 = load i64, ptr %8, align 8
  %71 = icmp eq i64 %69, %70
  br i1 %71, label %72, label %85

72:                                               ; preds = %63
  %73 = load ptr, ptr %6, align 8
  %74 = getelementptr inbounds nuw %struct.cgltf_accessor, ptr %73, i32 0, i32 6
  %75 = load i64, ptr %74, align 8
  %76 = load i64, ptr %8, align 8
  %77 = icmp eq i64 %75, %76
  br i1 %77, label %78, label %85

78:                                               ; preds = %72
  %79 = load ptr, ptr %7, align 8
  %80 = load ptr, ptr %12, align 8
  %81 = load i64, ptr %9, align 8
  %82 = load i64, ptr %10, align 8
  %83 = mul i64 %81, %82
  call void @llvm.memcpy.p0.p0.i64(ptr align 1 %79, ptr align 1 %80, i64 %83, i1 false)
  %84 = load i64, ptr %9, align 8
  store i64 %84, ptr %5, align 8
  store i32 1, ptr %11, align 4
  br label %140

85:                                               ; preds = %72, %63
  %86 = load i64, ptr %8, align 8
  switch i64 %86, label %137 [
    i64 2, label %87
    i64 4, label %112
  ]

87:                                               ; preds = %85
  call void @llvm.lifetime.start.p0(i64 8, ptr %13) #16
  store i64 0, ptr %13, align 8
  br label %88

88:                                               ; preds = %103, %87
  %89 = load i64, ptr %13, align 8
  %90 = load i64, ptr %9, align 8
  %91 = icmp ult i64 %89, %90
  br i1 %91, label %93, label %92

92:                                               ; preds = %88
  store i32 3, ptr %11, align 4
  call void @llvm.lifetime.end.p0(i64 8, ptr %13) #16
  br label %111

93:                                               ; preds = %88
  %94 = load ptr, ptr %12, align 8
  %95 = load ptr, ptr %6, align 8
  %96 = getelementptr inbounds nuw %struct.cgltf_accessor, ptr %95, i32 0, i32 1
  %97 = load i32, ptr %96, align 8
  %98 = call i64 @cgltf_component_read_index(ptr noundef %94, i32 noundef %97)
  %99 = trunc i64 %98 to i16
  %100 = load ptr, ptr %7, align 8
  %101 = load i64, ptr %13, align 8
  %102 = getelementptr inbounds nuw i16, ptr %100, i64 %101
  store i16 %99, ptr %102, align 2
  br label %103

103:                                              ; preds = %93
  %104 = load i64, ptr %13, align 8
  %105 = add i64 %104, 1
  store i64 %105, ptr %13, align 8
  %106 = load ptr, ptr %6, align 8
  %107 = getelementptr inbounds nuw %struct.cgltf_accessor, ptr %106, i32 0, i32 6
  %108 = load i64, ptr %107, align 8
  %109 = load ptr, ptr %12, align 8
  %110 = getelementptr inbounds nuw i8, ptr %109, i64 %108
  store ptr %110, ptr %12, align 8
  br label %88

111:                                              ; preds = %92
  br label %138

112:                                              ; preds = %85
  call void @llvm.lifetime.start.p0(i64 8, ptr %14) #16
  store i64 0, ptr %14, align 8
  br label %113

113:                                              ; preds = %128, %112
  %114 = load i64, ptr %14, align 8
  %115 = load i64, ptr %9, align 8
  %116 = icmp ult i64 %114, %115
  br i1 %116, label %118, label %117

117:                                              ; preds = %113
  store i32 6, ptr %11, align 4
  call void @llvm.lifetime.end.p0(i64 8, ptr %14) #16
  br label %136

118:                                              ; preds = %113
  %119 = load ptr, ptr %12, align 8
  %120 = load ptr, ptr %6, align 8
  %121 = getelementptr inbounds nuw %struct.cgltf_accessor, ptr %120, i32 0, i32 1
  %122 = load i32, ptr %121, align 8
  %123 = call i64 @cgltf_component_read_index(ptr noundef %119, i32 noundef %122)
  %124 = trunc i64 %123 to i32
  %125 = load ptr, ptr %7, align 8
  %126 = load i64, ptr %14, align 8
  %127 = getelementptr inbounds nuw i32, ptr %125, i64 %126
  store i32 %124, ptr %127, align 4
  br label %128

128:                                              ; preds = %118
  %129 = load i64, ptr %14, align 8
  %130 = add i64 %129, 1
  store i64 %130, ptr %14, align 8
  %131 = load ptr, ptr %6, align 8
  %132 = getelementptr inbounds nuw %struct.cgltf_accessor, ptr %131, i32 0, i32 6
  %133 = load i64, ptr %132, align 8
  %134 = load ptr, ptr %12, align 8
  %135 = getelementptr inbounds nuw i8, ptr %134, i64 %133
  store ptr %135, ptr %12, align 8
  br label %113

136:                                              ; preds = %117
  br label %138

137:                                              ; preds = %85
  br label %138

138:                                              ; preds = %137, %136, %111
  %139 = load i64, ptr %9, align 8
  store i64 %139, ptr %5, align 8
  store i32 1, ptr %11, align 4
  br label %140

140:                                              ; preds = %138, %78, %62
  call void @llvm.lifetime.end.p0(i64 8, ptr %12) #16
  br label %141

141:                                              ; preds = %140, %54, %49, %43
  call void @llvm.lifetime.end.p0(i64 8, ptr %10) #16
  br label %142

142:                                              ; preds = %141, %17
  %143 = load i64, ptr %5, align 8
  ret i64 %143
}