; Function Attrs: nofree norecurse nosync nounwind memory(readwrite, inaccessiblemem: none) uwtable
define hidden i64 @cgltf_accessor_unpack_indices(ptr noundef readonly captures(none) %0, ptr noundef writeonly captures(address_is_null) %1, i64 noundef %2, i64 noundef %3) local_unnamed_addr #23 {
  %5 = icmp eq ptr %1, null
  %6 = getelementptr inbounds nuw i8, ptr %0, i64 32
  %7 = load i64, ptr %6, align 8
  br i1 %5, label %cgltf_buffer_view_data.exit.thread, label %8

8:                                                ; preds = %4
  %. = tail call i64 @llvm.umin.i64(i64 %7, i64 %3)
  %9 = getelementptr inbounds nuw i8, ptr %0, i64 8
  %10 = load i32, ptr %9, align 8
  %switch.tableidx = add i32 %10, -1
  %11 = icmp ult i32 %switch.tableidx, 6
  br i1 %11, label %switch.lookup, label %cgltf_component_size.exit

switch.lookup:                                    ; preds = %8
  %12 = zext nneg i32 %switch.tableidx to i64
  %switch.gep = getelementptr inbounds nuw [6 x i64], ptr @switch.table.cgltf_accessor_unpack_indices, i64 0, i64 %12
  %switch.load = load i64, ptr %switch.gep, align 8
  br label %cgltf_component_size.exit

cgltf_component_size.exit:                        ; preds = %8, %switch.lookup
  %.0.i = phi i64 [ %switch.load, %switch.lookup ], [ 0, %8 ]
  %13 = getelementptr inbounds nuw i8, ptr %0, i64 192
  %14 = load i32, ptr %13, align 8
  %.not = icmp eq i32 %14, 0
  br i1 %.not, label %15, label %cgltf_buffer_view_data.exit.thread

15:                                               ; preds = %cgltf_component_size.exit
  %16 = getelementptr inbounds nuw i8, ptr %0, i64 48
  %17 = load ptr, ptr %16, align 8
  %18 = icmp eq ptr %17, null
  %19 = icmp ugt i64 %.0.i, %2
  %or.cond = or i1 %19, %18
  br i1 %or.cond, label %cgltf_buffer_view_data.exit.thread, label %20

20:                                               ; preds = %15
  %21 = getelementptr inbounds nuw i8, ptr %17, i64 48
  %22 = load ptr, ptr %21, align 8
  %.not.i = icmp eq ptr %22, null
  br i1 %.not.i, label %23, label %cgltf_buffer_view_data.exit.thread60

23:                                               ; preds = %20
  %24 = getelementptr inbounds nuw i8, ptr %17, i64 8
  %25 = load ptr, ptr %24, align 8
  %26 = getelementptr inbounds nuw i8, ptr %25, i64 24
  %27 = load ptr, ptr %26, align 8
  %.not10.i = icmp eq ptr %27, null
  br i1 %.not10.i, label %cgltf_buffer_view_data.exit.thread, label %cgltf_buffer_view_data.exit

cgltf_buffer_view_data.exit:                      ; preds = %23
  %28 = getelementptr inbounds nuw i8, ptr %17, i64 16
  %29 = load i64, ptr %28, align 8
  %30 = getelementptr inbounds nuw i8, ptr %27, i64 %29
  br label %cgltf_buffer_view_data.exit.thread60

cgltf_buffer_view_data.exit.thread60:             ; preds = %cgltf_buffer_view_data.exit, %20
  %.0.i5562 = phi ptr [ %30, %cgltf_buffer_view_data.exit ], [ %22, %20 ]
  %31 = getelementptr inbounds nuw i8, ptr %0, i64 24
  %32 = load i64, ptr %31, align 8
  %33 = getelementptr inbounds nuw i8, ptr %.0.i5562, i64 %32
  %34 = icmp eq i64 %.0.i, %2
  br i1 %34, label %35, label %41

35:                                               ; preds = %cgltf_buffer_view_data.exit.thread60
  %36 = getelementptr inbounds nuw i8, ptr %0, i64 40
  %37 = load i64, ptr %36, align 8
  %38 = icmp eq i64 %37, %2
  br i1 %38, label %39, label %41

39:                                               ; preds = %35
  %40 = mul i64 %2, %.
  tail call void @llvm.memcpy.p0.p0.i64(ptr nonnull align 1 %1, ptr nonnull align 1 %33, i64 %40, i1 false)
  br label %cgltf_buffer_view_data.exit.thread

41:                                               ; preds = %35, %cgltf_buffer_view_data.exit.thread60
  switch i64 %2, label %cgltf_buffer_view_data.exit.thread [
    i64 2, label %.preheader
    i64 4, label %.preheader63
  ]

.preheader63:                                     ; preds = %41
  %.not70 = icmp eq i64 %., 0
  br i1 %.not70, label %cgltf_buffer_view_data.exit.thread, label %.lr.ph

.lr.ph:                                           ; preds = %.preheader63
  %42 = getelementptr inbounds nuw i8, ptr %0, i64 40
  br label %58

.preheader:                                       ; preds = %41
  %.not71 = icmp eq i64 %., 0
  br i1 %.not71, label %cgltf_buffer_view_data.exit.thread, label %.lr.ph69

.lr.ph69:                                         ; preds = %.preheader
  %43 = getelementptr inbounds nuw i8, ptr %0, i64 40
  br label %44

44:                                               ; preds = %.lr.ph69, %cgltf_component_read_index.exit
  %.04468 = phi i64 [ 0, %.lr.ph69 ], [ %55, %cgltf_component_read_index.exit ]
  %.04567 = phi ptr [ %33, %.lr.ph69 ], [ %57, %cgltf_component_read_index.exit ]
  %45 = load i32, ptr %9, align 8
  switch i32 %45, label %cgltf_component_read_index.exit [
    i32 4, label %46
    i32 5, label %48
    i32 2, label %51
  ]

46:                                               ; preds = %44
  %47 = load i16, ptr %.04567, align 2
  br label %cgltf_component_read_index.exit

48:                                               ; preds = %44
  %49 = load i32, ptr %.04567, align 4
  %50 = trunc i32 %49 to i16
  br label %cgltf_component_read_index.exit

51:                                               ; preds = %44
  %52 = load i8, ptr %.04567, align 1
  %53 = zext i8 %52 to i16
  br label %cgltf_component_read_index.exit

cgltf_component_read_index.exit:                  ; preds = %44, %46, %48, %51
  %.0.i56 = phi i16 [ %53, %51 ], [ %50, %48 ], [ %47, %46 ], [ 0, %44 ]
  %54 = getelementptr inbounds nuw i16, ptr %1, i64 %.04468
  store i16 %.0.i56, ptr %54, align 2
  %55 = add nuw i64 %.04468, 1
  %56 = load i64, ptr %43, align 8
  %57 = getelementptr inbounds nuw i8, ptr %.04567, i64 %56
  %exitcond73.not = icmp eq i64 %55, %.
  br i1 %exitcond73.not, label %cgltf_buffer_view_data.exit.thread, label %44

58:                                               ; preds = %.lr.ph, %cgltf_component_read_index.exit58
  %.066 = phi i64 [ 0, %.lr.ph ], [ %69, %cgltf_component_read_index.exit58 ]
  %.165 = phi ptr [ %33, %.lr.ph ], [ %71, %cgltf_component_read_index.exit58 ]
  %59 = load i32, ptr %9, align 8
  switch i32 %59, label %cgltf_component_read_index.exit58 [
    i32 4, label %60
    i32 5, label %63
    i32 2, label %65
  ]

60:                                               ; preds = %58
  %61 = load i16, ptr %.165, align 2
  %62 = zext i16 %61 to i32
  br label %cgltf_component_read_index.exit58

63:                                               ; preds = %58
  %64 = load i32, ptr %.165, align 4
  br label %cgltf_component_read_index.exit58

65:                                               ; preds = %58
  %66 = load i8, ptr %.165, align 1
  %67 = zext i8 %66 to i32
  br label %cgltf_component_read_index.exit58

cgltf_component_read_index.exit58:                ; preds = %58, %60, %63, %65
  %.0.i57 = phi i32 [ %67, %65 ], [ %64, %63 ], [ %62, %60 ], [ 0, %58 ]
  %68 = getelementptr inbounds nuw i32, ptr %1, i64 %.066
  store i32 %.0.i57, ptr %68, align 4
  %69 = add nuw i64 %.066, 1
  %70 = load i64, ptr %42, align 8
  %71 = getelementptr inbounds nuw i8, ptr %.165, i64 %70
  %exitcond.not = icmp eq i64 %69, %.
  br i1 %exitcond.not, label %cgltf_buffer_view_data.exit.thread, label %58

cgltf_buffer_view_data.exit.thread:               ; preds = %cgltf_component_read_index.exit58, %cgltf_component_read_index.exit, %4, %.preheader63, %.preheader, %23, %cgltf_component_size.exit, %15, %41, %39
  %.046 = phi i64 [ 0, %cgltf_component_size.exit ], [ 0, %15 ], [ %., %39 ], [ %., %41 ], [ 0, %23 ], [ 0, %.preheader ], [ 0, %.preheader63 ], [ %7, %4 ], [ %., %cgltf_component_read_index.exit ], [ %., %cgltf_component_read_index.exit58 ]
  ret i64 %.046
}